target datalayout = "e-m:e-p270:32:32-p271:32:32-p272:64:64-i64:64-i128:128-f80:128-n8:16:32:64-S128"
target triple = "x86_64-pc-linux-gnu"

@.str.50 = private unnamed_addr constant [28 x i8] c"%s: unable to mkdir(%s): %s\00", align 1
@__func__._mkdir = private unnamed_addr constant [7 x i8] c"_mkdir\00", align 1

; Function Attrs: nounwind uwtable
define internal i32 @_mkdir(ptr noundef %0, i32 noundef %1) #0 {
  %3 = alloca i32, align 4
  %4 = alloca ptr, align 8
  %5 = alloca i32, align 4
  %6 = alloca i32, align 4
  %7 = alloca i32, align 4
  store ptr %0, ptr %4, align 8
  store i32 %1, ptr %5, align 4
  call void @llvm.lifetime.start.p0(i64 4, ptr %6) #10
  %8 = load ptr, ptr %4, align 8
  %9 = load i32, ptr %5, align 4
  %10 = call i32 @mkdir(ptr noundef %8, i32 noundef %9) #10
  store i32 %10, ptr %6, align 4
  %11 = icmp ne i32 %10, 0
  br i1 %11, label %12, label %15

12:                                               ; preds = %2
  %13 = call ptr @__errno_location() #12
  %14 = load i32, ptr %13, align 4
  store i32 %14, ptr %6, align 4
  br label %16

15:                                               ; preds = %2
  store i32 0, ptr %3, align 4
  store i32 1, ptr %7, align 4
  br label %35

16:                                               ; preds = %12
  %17 = load i32, ptr %6, align 4
  %18 = icmp eq i32 %17, 17
  br i1 %18, label %19, label %20

19:                                               ; preds = %16
  store i32 0, ptr %3, align 4
  store i32 1, ptr %7, align 4
  br label %35

20:                                               ; preds = %16
  br label %21

21:                                               ; preds = %20
  br label %22

22:                                               ; preds = %21
  %23 = call i32 @get_log_level()
  %24 = icmp sge i32 %23, 5
  br i1 %24, label %25, label %29

25:                                               ; preds = %22
  %26 = load ptr, ptr %4, align 8
  %27 = load i32, ptr %6, align 4
  %28 = call ptr @slurm_strerror(i32 noundef %27)
  call void (i32, ptr, ...) @log_var(i32 noundef 5, ptr noundef @.str.50, ptr noundef @__func__._mkdir, ptr noundef %26, ptr noundef %28)
  br label %29

29:                                               ; preds = %25, %22
  br label %30

30:                                               ; preds = %29
  br label %31

31:                                               ; preds = %30
  br label %32

32:                                               ; preds = %31
  br label %33

33:                                               ; preds = %32
  %34 = load i32, ptr %6, align 4
  store i32 %34, ptr %3, align 4
  store i32 1, ptr %7, align 4
  br label %35

35:                                               ; preds = %33, %19, %15
  call void @llvm.lifetime.end.p0(i64 4, ptr %6) #10
  %36 = load i32, ptr %3, align 4
  ret i32 %36
}

; Function Attrs: nounwind uwtable
define dso_local i32 @mkdirpath(ptr noundef %0, i32 noundef %1, i1 noundef zeroext %2) #0 {
  %4 = alloca ptr, align 8
  %5 = alloca i32, align 4
  %6 = alloca i8, align 1
  %7 = alloca i32, align 4
  %8 = alloca ptr, align 8
  %9 = alloca ptr, align 8
  store ptr %0, ptr %4, align 8
  store i32 %1, ptr %5, align 4
  %10 = zext i1 %2 to i8
  store i8 %10, ptr %6, align 1
  call void @llvm.lifetime.start.p0(i64 4, ptr %7) #10
  call void @llvm.lifetime.start.p0(i64 8, ptr %8) #10
  call void @llvm.lifetime.start.p0(i64 8, ptr %9) #10
  %11 = load ptr, ptr %4, align 8
  %12 = call ptr @xstrdup(ptr noundef %11)
  store ptr %12, ptr %9, align 8
  store ptr %12, ptr %8, align 8
  br label %13

13:                                               ; preds = %25, %3
  %14 = load ptr, ptr %8, align 8
  %15 = getelementptr inbounds i8, ptr %14, i64 1
  %16 = call ptr @xstrchr(ptr noundef %15, i32 noundef 47)
  store ptr %16, ptr %8, align 8
  %17 = icmp ne ptr %16, null
  br i1 %17, label %18, label %27

18:                                               ; preds = %13
  %19 = load ptr, ptr %8, align 8
  store i8 0, ptr %19, align 1
  %20 = load ptr, ptr %9, align 8
  %21 = load i32, ptr %5, align 4
  %22 = call i32 @_mkdir(ptr noundef %20, i32 noundef %21)
  store i32 %22, ptr %7, align 4
  %23 = icmp ne i32 %22, 0
  br i1 %23, label %24, label %25

24:                                               ; preds = %18
  br label %35

25:                                               ; preds = %18
  %26 = load ptr, ptr %8, align 8
  store i8 47, ptr %26, align 1
  br label %13, !llvm.loop !19

27:                                               ; preds = %13
  %28 = load i8, ptr %6, align 1, !range !11, !noundef !12
  %29 = trunc i8 %28 to i1
  br i1 %29, label %30, label %34

30:                                               ; preds = %27
  %31 = load ptr, ptr %9, align 8
  %32 = load i32, ptr %5, align 4
  %33 = call i32 @_mkdir(ptr noundef %31, i32 noundef %32)
  store i32 %33, ptr %7, align 4
  br label %34

34:                                               ; preds = %30, %27
  br label %35

35:                                               ; preds = %34, %24
  call void @slurm_xfree(ptr noundef %9)
  %36 = load i32, ptr %7, align 4
  call void @llvm.lifetime.end.p0(i64 8, ptr %9) #10
  call void @llvm.lifetime.end.p0(i64 8, ptr %8) #10
  call void @llvm.lifetime.end.p0(i64 4, ptr %7) #10
  ret i32 %36
}