; Function Attrs: nounwind uwtable
define dso_local range(i32 18, 17) i32 @mkdirpath(ptr noundef %0, i32 noundef %1, i1 noundef zeroext %2) local_unnamed_addr #0 {
  %4 = alloca ptr, align 8
  call void @llvm.lifetime.start.p0(i64 8, ptr nonnull %4) #10
  %5 = tail call ptr @xstrdup(ptr noundef %0) #10
  store ptr %5, ptr %4, align 8
  %6 = getelementptr inbounds nuw i8, ptr %5, i64 1
  %7 = tail call ptr @xstrchr(ptr noundef nonnull %6, i32 noundef 47) #10
  %.not17 = icmp eq ptr %7, null
  br i1 %.not17, label %._crit_edge, label %.lr.ph

.lr.ph:                                           ; preds = %3, %_mkdir.exit.thread
  %8 = phi ptr [ %20, %_mkdir.exit.thread ], [ %7, %3 ]
  store i8 0, ptr %8, align 1
  %9 = tail call i32 @mkdir(ptr noundef %5, i32 noundef %1) #10
  %.not.i = icmp eq i32 %9, 0
  br i1 %.not.i, label %_mkdir.exit.thread, label %10

10:                                               ; preds = %.lr.ph
  %11 = tail call ptr @__errno_location() #11
  %12 = load i32, ptr %11, align 4
  %13 = icmp eq i32 %12, 17
  br i1 %13, label %_mkdir.exit.thread, label %14

14:                                               ; preds = %10
  %15 = tail call i32 @get_log_level() #10
  %16 = icmp sgt i32 %15, 4
  br i1 %16, label %17, label %_mkdir.exit

17:                                               ; preds = %14
  %18 = tail call ptr @slurm_strerror(i32 noundef %12) #10
  tail call void (i32, ptr, ...) @log_var(i32 noundef 5, ptr noundef nonnull @.str.50, ptr noundef nonnull @__func__._mkdir, ptr noundef %5, ptr noundef %18) #10
  br label %_mkdir.exit

_mkdir.exit:                                      ; preds = %14, %17
  %.not11 = icmp eq i32 %12, 0
  br i1 %.not11, label %_mkdir.exit.thread, label %_mkdir.exit14

_mkdir.exit.thread:                               ; preds = %10, %.lr.ph, %_mkdir.exit
  store i8 47, ptr %8, align 1
  %19 = getelementptr inbounds nuw i8, ptr %8, i64 1
  %20 = tail call ptr @xstrchr(ptr noundef nonnull %19, i32 noundef 47) #10
  %.not = icmp eq ptr %20, null
  br i1 %.not, label %._crit_edge, label %.lr.ph, !llvm.loop !17

._crit_edge:                                      ; preds = %_mkdir.exit.thread, %3
  br i1 %2, label %21, label %_mkdir.exit14

21:                                               ; preds = %._crit_edge
  %22 = tail call i32 @mkdir(ptr noundef %5, i32 noundef %1) #10
  %.not.i12 = icmp eq i32 %22, 0
  br i1 %.not.i12, label %_mkdir.exit14, label %23

23:                                               ; preds = %21
  %24 = tail call ptr @__errno_location() #11
  %25 = load i32, ptr %24, align 4
  %26 = icmp eq i32 %25, 17
  br i1 %26, label %_mkdir.exit14, label %27

27:                                               ; preds = %23
  %28 = tail call i32 @get_log_level() #10
  %29 = icmp sgt i32 %28, 4
  br i1 %29, label %30, label %_mkdir.exit14

30:                                               ; preds = %27
  %31 = tail call ptr @slurm_strerror(i32 noundef %25) #10
  tail call void (i32, ptr, ...) @log_var(i32 noundef 5, ptr noundef nonnull @.str.50, ptr noundef nonnull @__func__._mkdir, ptr noundef %5, ptr noundef %31) #10
  br label %_mkdir.exit14

_mkdir.exit14:                                    ; preds = %_mkdir.exit, %30, %27, %23, %21, %._crit_edge
  %.1 = phi i32 [ 0, %._crit_edge ], [ 0, %21 ], [ 0, %23 ], [ %25, %30 ], [ %25, %27 ], [ %12, %_mkdir.exit ]
  call void @slurm_xfree(ptr noundef nonnull %4) #10
  call void @llvm.lifetime.end.p0(i64 8, ptr nonnull %4) #10
  ret i32 %.1
}